target datalayout = "e-m:e-p270:32:32-p271:32:32-p272:64:64-i64:64-i128:128-f80:128-n8:16:32:64-S128"
target triple = "x86_64-pc-linux-gnu"

%struct.darktable_t = type { %struct.dt_codepath_t, i32, i32, ptr, ptr, ptr, ptr, ptr, ptr, ptr, ptr, ptr, ptr, ptr, ptr, ptr, ptr, ptr, ptr, ptr, ptr, ptr, ptr, ptr, ptr, ptr, ptr, ptr, ptr, ptr, [64 x %struct.dt_pthread_mutex_t], %struct.dt_pthread_mutex_t, %struct.dt_pthread_mutex_t, %struct.dt_pthread_mutex_t, %struct.dt_pthread_mutex_t, %struct.dt_pthread_mutex_t, ptr, ptr, ptr, ptr, ptr, ptr, ptr, ptr, ptr, ptr, ptr, ptr, ptr, %struct.dt_lua_state_t, ptr, double, ptr, i32, [47 x i32], i32, i32, ptr, ptr, %struct.dt_sys_resources_t, %struct.dt_backthumb_t, %struct.dt_gimp_t }
%struct.dt_codepath_t = type { i8, [3 x i8] }
%struct.dt_pthread_mutex_t = type { %union.pthread_mutex_t }
%union.pthread_mutex_t = type { %struct.__pthread_mutex_s }
%struct.__pthread_mutex_s = type { i32, i32, i32, i32, i32, i16, i16, %struct.__pthread_internal_list }
%struct.__pthread_internal_list = type { ptr, ptr }
%struct.dt_lua_state_t = type { i32 }
%struct.dt_sys_resources_t = type { i64, i64, ptr, ptr, i32 }
%struct.dt_backthumb_t = type { double, double, i32, i32, i32, i32 }
%struct.dt_gimp_t = type { i32, ptr, ptr, i32, i32 }

@darktable = external global %struct.darktable_t, align 8
@.str.192 = private unnamed_addr constant [5 x i8] c"file\00", align 1

; Function Attrs: inlinehint nounwind uwtable
define internal i32 @dt_check_gimpmode_ok(ptr noundef %0) #4 {
  %2 = alloca ptr, align 8
  store ptr %0, ptr %2, align 8, !tbaa !11
  %3 = load ptr, ptr getelementptr inbounds nuw (%struct.dt_gimp_t, ptr getelementptr inbounds nuw (%struct.darktable_t, ptr @darktable, i32 0, i32 61), i32 0, i32 1), align 8, !tbaa !368
  %4 = icmp ne ptr %3, null
  br i1 %4, label %5, label %16

5:                                                ; preds = %1
  %6 = load i32, ptr getelementptr inbounds nuw (%struct.dt_gimp_t, ptr getelementptr inbounds nuw (%struct.darktable_t, ptr @darktable, i32 0, i32 61), i32 0, i32 4), align 4, !tbaa !179
  %7 = icmp ne i32 %6, 0
  br i1 %7, label %13, label %8

8:                                                ; preds = %5
  %9 = load ptr, ptr getelementptr inbounds nuw (%struct.dt_gimp_t, ptr getelementptr inbounds nuw (%struct.darktable_t, ptr @darktable, i32 0, i32 61), i32 0, i32 1), align 8, !tbaa !368
  %10 = load ptr, ptr %2, align 8, !tbaa !11
  %11 = call i32 @strcmp(ptr noundef %9, ptr noundef %10) #18
  %12 = icmp eq i32 %11, 0
  br label %13

13:                                               ; preds = %8, %5
  %14 = phi i1 [ false, %5 ], [ %12, %8 ]
  %15 = zext i1 %14 to i32
  br label %17

16:                                               ; preds = %1
  br label %17

17:                                               ; preds = %16, %13
  %18 = phi i32 [ %15, %13 ], [ 0, %16 ]
  ret i32 %18
}

; Function Attrs: nounwind uwtable
define internal void @_quit_callback(ptr noundef %0) #0 {
  %2 = alloca ptr, align 8
  store ptr %0, ptr %2, align 8, !tbaa !131
  %3 = load ptr, ptr getelementptr inbounds nuw (%struct.darktable_t, ptr @darktable, i32 0, i32 9), align 8, !tbaa !177
  %4 = icmp ne ptr %3, null
  br i1 %4, label %5, label %21

5:                                                ; preds = %1
  %6 = call i32 @dt_view_get_current()
  %7 = icmp eq i32 %6, 2
  br i1 %7, label %8, label %21

8:                                                ; preds = %5
  %9 = load ptr, ptr getelementptr inbounds nuw (%struct.darktable_t, ptr @darktable, i32 0, i32 9), align 8, !tbaa !177
  call void @dt_dev_write_history(ptr noundef %9)
  %10 = call i32 @dt_check_gimpmode_ok(ptr noundef @.str.192)
  %11 = icmp ne i32 %10, 0
  br i1 %11, label %12, label %20

12:                                               ; preds = %8
  %13 = load i32, ptr getelementptr inbounds nuw (%struct.dt_gimp_t, ptr getelementptr inbounds nuw (%struct.darktable_t, ptr @darktable, i32 0, i32 61), i32 0, i32 3), align 8, !tbaa !178
  %14 = call i32 @dt_export_gimp_file(i32 noundef %13)
  %15 = icmp ne i32 %14, 0
  %16 = xor i1 %15, true
  %17 = zext i1 %16 to i32
  store i32 %17, ptr getelementptr inbounds nuw (%struct.dt_gimp_t, ptr getelementptr inbounds nuw (%struct.darktable_t, ptr @darktable, i32 0, i32 61), i32 0, i32 4), align 4, !tbaa !179
  %18 = load i32, ptr getelementptr inbounds nuw (%struct.dt_gimp_t, ptr getelementptr inbounds nuw (%struct.darktable_t, ptr @darktable, i32 0, i32 61), i32 0, i32 3), align 8, !tbaa !178
  %19 = call i32 @dt_image_write_sidecar_file(i32 noundef %18)
  br label %20

20:                                               ; preds = %12, %8
  br label %21

21:                                               ; preds = %20, %5, %1
  call void (...) @dt_control_quit()
  ret void
}