; Function Attrs: nounwind uwtable
define internal void @_quit_callback(ptr readnone captures(none) %0) #0 {
  %2 = load ptr, ptr getelementptr inbounds nuw (i8, ptr @darktable, i64 64), align 8, !tbaa !150
  %.not = icmp eq ptr %2, null
  br i1 %.not, label %dt_check_gimpmode_ok.exit.thread, label %3

3:                                                ; preds = %1
  %4 = tail call i32 @dt_view_get_current() #18
  %5 = icmp eq i32 %4, 2
  br i1 %5, label %6, label %dt_check_gimpmode_ok.exit.thread

6:                                                ; preds = %3
  %7 = load ptr, ptr getelementptr inbounds nuw (i8, ptr @darktable, i64 64), align 8, !tbaa !150
  tail call void @dt_dev_write_history(ptr noundef %7) #18
  %8 = load ptr, ptr getelementptr inbounds nuw (i8, ptr @darktable, i64 3424), align 8, !tbaa !151
  %.not.i = icmp ne ptr %8, null
  %9 = load i32, ptr getelementptr inbounds nuw (i8, ptr @darktable, i64 3444), align 4
  %.not1.i = icmp eq i32 %9, 0
  %or.cond.i = select i1 %.not.i, i1 %.not1.i, i1 false
  br i1 %or.cond.i, label %dt_check_gimpmode_ok.exit, label %dt_check_gimpmode_ok.exit.thread

dt_check_gimpmode_ok.exit:                        ; preds = %6
  %10 = tail call i32 @strcmp(ptr noundef nonnull dereferenceable(1) %8, ptr noundef nonnull dereferenceable(5) @.str.192) #20
  %.not4 = icmp eq i32 %10, 0
  br i1 %.not4, label %11, label %dt_check_gimpmode_ok.exit.thread

11:                                               ; preds = %dt_check_gimpmode_ok.exit
  %12 = load i32, ptr getelementptr inbounds nuw (i8, ptr @darktable, i64 3440), align 8, !tbaa !152
  %13 = tail call i32 @dt_export_gimp_file(i32 noundef %12) #18
  %.not2 = icmp eq i32 %13, 0
  %14 = zext i1 %.not2 to i32
  store i32 %14, ptr getelementptr inbounds nuw (i8, ptr @darktable, i64 3444), align 4, !tbaa !153
  %15 = load i32, ptr getelementptr inbounds nuw (i8, ptr @darktable, i64 3440), align 8, !tbaa !152
  %16 = tail call i32 @dt_image_write_sidecar_file(i32 noundef %15) #18
  br label %dt_check_gimpmode_ok.exit.thread

dt_check_gimpmode_ok.exit.thread:                 ; preds = %6, %dt_check_gimpmode_ok.exit, %11, %3, %1
  tail call void (...) @dt_control_quit() #18
  ret void
}